target datalayout = "e-m:e-p270:32:32-p271:32:32-p272:64:64-i64:64-i128:128-f80:128-n8:16:32:64-S128"
target triple = "x86_64-pc-linux-gnu"

%struct._packet_info = type { ptr, ptr, i32, i32, %struct.nstime_t, %struct.nstime_t, %struct.nstime_t, i8, ptr, ptr, ptr, ptr, %struct._address, %struct._address, %struct._address, %struct._address, %struct._address, %struct._address, i32, ptr, i8, [3 x i8], %struct.anon, i32, i32, i32, i32, ptr, i8, ptr, ptr, i16, i16, i32, i32, i16, i32, i32, ptr, ptr, ptr, i8, i8, i16, i16, i16, i32, i16, i16, ptr, ptr, ptr, ptr, ptr, i32, i32 }
%struct.nstime_t = type { i64, i32 }
%struct._address = type { i32, i32, ptr, ptr }
%struct.anon = type { i8, [3 x i8] }

@hf_bvlc_type = internal global i32 0, align 4
@hf_bvlc_ipv6_function = internal global i32 0, align 4
@hf_bvlc_length = internal global i32 0, align 4
@hf_bvlc_virt_source = internal global i32 0, align 4
@hf_bvlc_virt_dest = internal global i32 0, align 4
@hf_bvlc_result_ip6 = internal global i32 0, align 4
@hf_bvlc_reg_ttl = internal global i32 0, align 4
@hf_bvlc_fdt_ipv6 = internal global i32 0, align 4
@hf_bvlc_fdt_port = internal global i32 0, align 4
@hf_bvlc_orig_source_addr = internal global i32 0, align 4
@hf_bvlc_orig_source_port = internal global i32 0, align 4
@ett_bvlc = internal global i32 0, align 4
@proto_bvlc = internal global i32 0, align 4
@bvlc_ipv6_dissector_table = internal global ptr null, align 8
@.str.422 = private unnamed_addr constant [19 x i8] c" BVLC Function %s \00", align 1
@.str.423 = private unnamed_addr constant [8 x i8] c"unknown\00", align 1
@.str.424 = private unnamed_addr constant [52 x i8] c"%d of %d bytes (invalid length - expected %d bytes)\00", align 1
@.str.425 = private unnamed_addr constant [36 x i8] c"%d of %d bytes BACnet packet length\00", align 1

; Function Attrs: null_pointer_is_valid sspstrong uwtable
define internal i32 @dissect_ipv6_bvlc(ptr noundef %0, ptr noundef %1, ptr noundef %2, ptr noundef %3) #0 {
  %5 = alloca i32, align 4
  %6 = alloca ptr, align 8
  %7 = alloca ptr, align 8
  %8 = alloca ptr, align 8
  %9 = alloca ptr, align 8
  %10 = alloca ptr, align 8
  %11 = alloca ptr, align 8
  %12 = alloca i32, align 4
  %13 = alloca i8, align 1
  %14 = alloca i8, align 1
  %15 = alloca i16, align 2
  %16 = alloca i16, align 2
  %17 = alloca i32, align 4
  %18 = alloca i32, align 4
  %19 = alloca ptr, align 8
  %20 = alloca i32, align 4
  store ptr %0, ptr %6, align 8
  store ptr %1, ptr %7, align 8
  store ptr %2, ptr %8, align 8
  store ptr %3, ptr %9, align 8
  call void @llvm.lifetime.start.p0(i64 8, ptr %10) #4
  call void @llvm.lifetime.start.p0(i64 8, ptr %11) #4
  call void @llvm.lifetime.start.p0(i64 4, ptr %12) #4
  call void @llvm.lifetime.start.p0(i64 1, ptr %13) #4
  call void @llvm.lifetime.start.p0(i64 1, ptr %14) #4
  call void @llvm.lifetime.start.p0(i64 2, ptr %15) #4
  store i16 0, ptr %15, align 2
  call void @llvm.lifetime.start.p0(i64 2, ptr %16) #4
  call void @llvm.lifetime.start.p0(i64 4, ptr %17) #4
  call void @llvm.lifetime.start.p0(i64 4, ptr %18) #4
  call void @llvm.lifetime.start.p0(i64 8, ptr %19) #4
  store i32 0, ptr %12, align 4
  %21 = load ptr, ptr %6, align 8
  %22 = load i32, ptr %12, align 4
  %23 = call zeroext i8 @tvb_get_uint8(ptr noundef %21, i32 noundef %22)
  store i8 %23, ptr %13, align 1
  %24 = load ptr, ptr %6, align 8
  %25 = load i32, ptr %12, align 4
  %26 = add i32 %25, 1
  %27 = call zeroext i8 @tvb_get_uint8(ptr noundef %24, i32 noundef %26)
  store i8 %27, ptr %14, align 1
  %28 = load ptr, ptr %6, align 8
  %29 = load i32, ptr %12, align 4
  %30 = add i32 %29, 2
  %31 = call zeroext i16 @tvb_get_ntohs(ptr noundef %28, i32 noundef %30)
  store i16 %31, ptr %16, align 2
  %32 = load ptr, ptr %6, align 8
  %33 = load i32, ptr %12, align 4
  %34 = call i32 @tvb_reported_length_remaining(ptr noundef %32, i32 noundef %33)
  store i32 %34, ptr %18, align 4
  %35 = load i8, ptr %14, align 1
  %36 = zext i8 %35 to i32
  switch i32 %36, label %44 [
    i32 0, label %37
    i32 9, label %37
    i32 1, label %38
    i32 2, label %39
    i32 6, label %39
    i32 12, label %39
    i32 3, label %40
    i32 5, label %40
    i32 7, label %40
    i32 4, label %41
    i32 8, label %42
    i32 10, label %42
    i32 11, label %43
  ]

37:                                               ; preds = %4, %4
  store i16 9, ptr %15, align 2
  br label %45

38:                                               ; preds = %4
  store i16 10, ptr %15, align 2
  br label %45

39:                                               ; preds = %4, %4, %4
  store i16 7, ptr %15, align 2
  br label %45

40:                                               ; preds = %4, %4, %4
  store i16 10, ptr %15, align 2
  br label %45

41:                                               ; preds = %4
  store i16 28, ptr %15, align 2
  br label %45

42:                                               ; preds = %4, %4
  store i16 25, ptr %15, align 2
  br label %45

43:                                               ; preds = %4
  store i16 4, ptr %15, align 2
  br label %45

44:                                               ; preds = %4
  br label %45

45:                                               ; preds = %44, %43, %42, %41, %40, %39, %38, %37
  %46 = load i16, ptr %15, align 2
  %47 = zext i16 %46 to i32
  %48 = load i16, ptr %16, align 2
  %49 = zext i16 %48 to i32
  %50 = icmp sgt i32 %47, %49
  br i1 %50, label %51, label %52

51:                                               ; preds = %45
  store i32 0, ptr %5, align 4
  store i32 1, ptr %20, align 4
  br label %258

52:                                               ; preds = %45
  %53 = load ptr, ptr %7, align 8
  %54 = getelementptr inbounds nuw %struct._packet_info, ptr %53, i32 0, i32 1
  %55 = load ptr, ptr %54, align 8
  %56 = load i8, ptr %14, align 1
  %57 = zext i8 %56 to i32
  %58 = call ptr @val_to_str_const(i32 noundef %57, ptr noundef @bvlc_ipv6_function_names, ptr noundef @.str.423)
  call void (ptr, i32, ptr, ...) @col_append_fstr(ptr noundef %55, i32 noundef 25, ptr noundef @.str.422, ptr noundef %58)
  %59 = load ptr, ptr %8, align 8
  %60 = load i32, ptr @proto_bvlc, align 4
  %61 = load ptr, ptr %6, align 8
  %62 = load i16, ptr %15, align 2
  %63 = zext i16 %62 to i32
  %64 = call ptr @proto_tree_add_item(ptr noundef %59, i32 noundef %60, ptr noundef %61, i32 noundef 0, i32 noundef %63, i32 noundef 0)
  store ptr %64, ptr %10, align 8
  %65 = load ptr, ptr %10, align 8
  %66 = load i32, ptr @ett_bvlc, align 4
  %67 = call ptr @proto_item_add_subtree(ptr noundef %65, i32 noundef %66)
  store ptr %67, ptr %11, align 8
  %68 = load ptr, ptr %11, align 8
  %69 = load i32, ptr @hf_bvlc_type, align 4
  %70 = load ptr, ptr %6, align 8
  %71 = load i32, ptr %12, align 4
  %72 = load i8, ptr %13, align 1
  %73 = zext i8 %72 to i32
  %74 = call ptr @proto_tree_add_uint(ptr noundef %68, i32 noundef %69, ptr noundef %70, i32 noundef %71, i32 noundef 1, i32 noundef %73)
  %75 = load i32, ptr %12, align 4
  %76 = add i32 %75, 1
  store i32 %76, ptr %12, align 4
  %77 = load ptr, ptr %11, align 8
  %78 = load i32, ptr @hf_bvlc_ipv6_function, align 4
  %79 = load ptr, ptr %6, align 8
  %80 = load i32, ptr %12, align 4
  %81 = load i8, ptr %14, align 1
  %82 = zext i8 %81 to i32
  %83 = call ptr @proto_tree_add_uint(ptr noundef %77, i32 noundef %78, ptr noundef %79, i32 noundef %80, i32 noundef 1, i32 noundef %82)
  %84 = load i32, ptr %12, align 4
  %85 = add i32 %84, 1
  store i32 %85, ptr %12, align 4
  %86 = load i32, ptr %18, align 4
  %87 = load i16, ptr %16, align 2
  %88 = zext i16 %87 to i32
  %89 = icmp ne i32 %86, %88
  br i1 %89, label %90, label %103

90:                                               ; preds = %52
  %91 = load ptr, ptr %11, align 8
  %92 = load i32, ptr @hf_bvlc_length, align 4
  %93 = load ptr, ptr %6, align 8
  %94 = load i32, ptr %12, align 4
  %95 = load i16, ptr %15, align 2
  %96 = zext i16 %95 to i32
  %97 = load i16, ptr %15, align 2
  %98 = zext i16 %97 to i32
  %99 = load i16, ptr %16, align 2
  %100 = zext i16 %99 to i32
  %101 = load i32, ptr %18, align 4
  %102 = call ptr (ptr, i32, ptr, i32, i32, i32, ptr, ...) @proto_tree_add_uint_format_value(ptr noundef %91, i32 noundef %92, ptr noundef %93, i32 noundef %94, i32 noundef 2, i32 noundef %96, ptr noundef @.str.424, i32 noundef %98, i32 noundef %100, i32 noundef %101)
  br label %115

103:                                              ; preds = %52
  %104 = load ptr, ptr %11, align 8
  %105 = load i32, ptr @hf_bvlc_length, align 4
  %106 = load ptr, ptr %6, align 8
  %107 = load i32, ptr %12, align 4
  %108 = load i16, ptr %15, align 2
  %109 = zext i16 %108 to i32
  %110 = load i16, ptr %15, align 2
  %111 = zext i16 %110 to i32
  %112 = load i16, ptr %16, align 2
  %113 = zext i16 %112 to i32
  %114 = call ptr (ptr, i32, ptr, i32, i32, i32, ptr, ...) @proto_tree_add_uint_format_value(ptr noundef %104, i32 noundef %105, ptr noundef %106, i32 noundef %107, i32 noundef 2, i32 noundef %109, ptr noundef @.str.425, i32 noundef %111, i32 noundef %113)
  br label %115

115:                                              ; preds = %103, %90
  %116 = load i32, ptr %12, align 4
  %117 = add i32 %116, 2
  store i32 %117, ptr %12, align 4
  %118 = load i8, ptr %14, align 1
  %119 = zext i8 %118 to i32
  %120 = icmp ne i32 %119, 11
  br i1 %120, label %121, label %129

121:                                              ; preds = %115
  %122 = load ptr, ptr %11, align 8
  %123 = load i32, ptr @hf_bvlc_virt_source, align 4
  %124 = load ptr, ptr %6, align 8
  %125 = load i32, ptr %12, align 4
  %126 = call ptr @proto_tree_add_item(ptr noundef %122, i32 noundef %123, ptr noundef %124, i32 noundef %125, i32 noundef 3, i32 noundef 0)
  %127 = load i32, ptr %12, align 4
  %128 = add i32 %127, 3
  store i32 %128, ptr %12, align 4
  br label %129

129:                                              ; preds = %121, %115
  %130 = load i8, ptr %14, align 1
  %131 = zext i8 %130 to i32
  switch i32 %131, label %232 [
    i32 0, label %132
    i32 1, label %140
    i32 3, label %140
    i32 5, label %140
    i32 7, label %140
    i32 4, label %148
    i32 8, label %170
    i32 6, label %233
    i32 9, label %185
    i32 10, label %193
    i32 11, label %208
    i32 2, label %231
    i32 12, label %231
  ]

132:                                              ; preds = %129
  %133 = load ptr, ptr %11, align 8
  %134 = load i32, ptr @hf_bvlc_result_ip6, align 4
  %135 = load ptr, ptr %6, align 8
  %136 = load i32, ptr %12, align 4
  %137 = call ptr @proto_tree_add_item(ptr noundef %133, i32 noundef %134, ptr noundef %135, i32 noundef %136, i32 noundef 2, i32 noundef 0)
  %138 = load i32, ptr %12, align 4
  %139 = add i32 %138, 2
  store i32 %139, ptr %12, align 4
  br label %233

140:                                              ; preds = %129, %129, %129, %129
  %141 = load ptr, ptr %11, align 8
  %142 = load i32, ptr @hf_bvlc_virt_dest, align 4
  %143 = load ptr, ptr %6, align 8
  %144 = load i32, ptr %12, align 4
  %145 = call ptr @proto_tree_add_item(ptr noundef %141, i32 noundef %142, ptr noundef %143, i32 noundef %144, i32 noundef 3, i32 noundef 0)
  %146 = load i32, ptr %12, align 4
  %147 = add i32 %146, 3
  store i32 %147, ptr %12, align 4
  br label %233

148:                                              ; preds = %129
  %149 = load ptr, ptr %11, align 8
  %150 = load i32, ptr @hf_bvlc_virt_dest, align 4
  %151 = load ptr, ptr %6, align 8
  %152 = load i32, ptr %12, align 4
  %153 = call ptr @proto_tree_add_item(ptr noundef %149, i32 noundef %150, ptr noundef %151, i32 noundef %152, i32 noundef 3, i32 noundef 0)
  %154 = load i32, ptr %12, align 4
  %155 = add i32 %154, 3
  store i32 %155, ptr %12, align 4
  %156 = load ptr, ptr %11, align 8
  %157 = load i32, ptr @hf_bvlc_orig_source_addr, align 4
  %158 = load ptr, ptr %6, align 8
  %159 = load i32, ptr %12, align 4
  %160 = call ptr @proto_tree_add_item(ptr noundef %156, i32 noundef %157, ptr noundef %158, i32 noundef %159, i32 noundef 16, i32 noundef 0)
  %161 = load i32, ptr %12, align 4
  %162 = add i32 %161, 16
  store i32 %162, ptr %12, align 4
  %163 = load ptr, ptr %11, align 8
  %164 = load i32, ptr @hf_bvlc_orig_source_port, align 4
  %165 = load ptr, ptr %6, align 8
  %166 = load i32, ptr %12, align 4
  %167 = call ptr @proto_tree_add_item(ptr noundef %163, i32 noundef %164, ptr noundef %165, i32 noundef %166, i32 noundef 2, i32 noundef 0)
  %168 = load i32, ptr %12, align 4
  %169 = add i32 %168, 2
  store i32 %169, ptr %12, align 4
  br label %233

170:                                              ; preds = %129
  %171 = load ptr, ptr %11, align 8
  %172 = load i32, ptr @hf_bvlc_orig_source_addr, align 4
  %173 = load ptr, ptr %6, align 8
  %174 = load i32, ptr %12, align 4
  %175 = call ptr @proto_tree_add_item(ptr noundef %171, i32 noundef %172, ptr noundef %173, i32 noundef %174, i32 noundef 16, i32 noundef 0)
  %176 = load i32, ptr %12, align 4
  %177 = add i32 %176, 16
  store i32 %177, ptr %12, align 4
  %178 = load ptr, ptr %11, align 8
  %179 = load i32, ptr @hf_bvlc_orig_source_port, align 4
  %180 = load ptr, ptr %6, align 8
  %181 = load i32, ptr %12, align 4
  %182 = call ptr @proto_tree_add_item(ptr noundef %178, i32 noundef %179, ptr noundef %180, i32 noundef %181, i32 noundef 2, i32 noundef 0)
  %183 = load i32, ptr %12, align 4
  %184 = add i32 %183, 2
  store i32 %184, ptr %12, align 4
  br label %233

185:                                              ; preds = %129
  %186 = load ptr, ptr %11, align 8
  %187 = load i32, ptr @hf_bvlc_reg_ttl, align 4
  %188 = load ptr, ptr %6, align 8
  %189 = load i32, ptr %12, align 4
  %190 = call ptr @proto_tree_add_item(ptr noundef %186, i32 noundef %187, ptr noundef %188, i32 noundef %189, i32 noundef 2, i32 noundef 0)
  %191 = load i32, ptr %12, align 4
  %192 = add i32 %191, 2
  store i32 %192, ptr %12, align 4
  br label %233

193:                                              ; preds = %129
  %194 = load ptr, ptr %11, align 8
  %195 = load i32, ptr @hf_bvlc_fdt_ipv6, align 4
  %196 = load ptr, ptr %6, align 8
  %197 = load i32, ptr %12, align 4
  %198 = call ptr @proto_tree_add_item(ptr noundef %194, i32 noundef %195, ptr noundef %196, i32 noundef %197, i32 noundef 16, i32 noundef 0)
  %199 = load i32, ptr %12, align 4
  %200 = add i32 %199, 16
  store i32 %200, ptr %12, align 4
  %201 = load ptr, ptr %11, align 8
  %202 = load i32, ptr @hf_bvlc_fdt_port, align 4
  %203 = load ptr, ptr %6, align 8
  %204 = load i32, ptr %12, align 4
  %205 = call ptr @proto_tree_add_item(ptr noundef %201, i32 noundef %202, ptr noundef %203, i32 noundef %204, i32 noundef 2, i32 noundef 0)
  %206 = load i32, ptr %12, align 4
  %207 = add i32 %206, 2
  store i32 %207, ptr %12, align 4
  br label %233

208:                                              ; preds = %129
  %209 = load ptr, ptr %6, align 8
  %210 = load ptr, ptr %7, align 8
  %211 = load ptr, ptr %8, align 8
  %212 = load i32, ptr %12, align 4
  %213 = call i32 @bacnet_dissect_sec_wrapper(ptr noundef %209, ptr noundef %210, ptr noundef %211, i32 noundef %212, ptr noundef null)
  store i32 %213, ptr %12, align 4
  %214 = load i32, ptr %12, align 4
  %215 = icmp slt i32 %214, 0
  br i1 %215, label %216, label %223

216:                                              ; preds = %208
  %217 = load ptr, ptr %6, align 8
  %218 = load ptr, ptr %7, align 8
  %219 = load ptr, ptr %8, align 8
  %220 = call i32 @call_data_dissector(ptr noundef %217, ptr noundef %218, ptr noundef %219)
  %221 = load ptr, ptr %6, align 8
  %222 = call i32 @tvb_captured_length(ptr noundef %221)
  store i32 %222, ptr %5, align 4
  store i32 1, ptr %20, align 4
  br label %258

223:                                              ; preds = %208
  %224 = load ptr, ptr %7, align 8
  call void @increment_dissection_depth(ptr noundef %224)
  %225 = load ptr, ptr %6, align 8
  %226 = load ptr, ptr %7, align 8
  %227 = load ptr, ptr %8, align 8
  %228 = load ptr, ptr %9, align 8
  %229 = call i32 @dissect_ipv6_bvlc(ptr noundef %225, ptr noundef %226, ptr noundef %227, ptr noundef %228)
  %230 = load ptr, ptr %7, align 8
  call void @decrement_dissection_depth(ptr noundef %230)
  br label %233

231:                                              ; preds = %129, %129
  br label %232

232:                                              ; preds = %129, %231
  br label %233

233:                                              ; preds = %232, %223, %129, %193, %185, %170, %148, %140, %132
  %234 = load i16, ptr %16, align 2
  %235 = zext i16 %234 to i32
  %236 = load i32, ptr %12, align 4
  %237 = sub i32 %235, %236
  store i32 %237, ptr %17, align 4
  %238 = load ptr, ptr %6, align 8
  %239 = load i32, ptr %12, align 4
  %240 = load i32, ptr %17, align 4
  %241 = call ptr @tvb_new_subset_length(ptr noundef %238, i32 noundef %239, i32 noundef %240)
  store ptr %241, ptr %19, align 8
  %242 = load ptr, ptr @bvlc_ipv6_dissector_table, align 8
  %243 = load i8, ptr %14, align 1
  %244 = zext i8 %243 to i32
  %245 = load ptr, ptr %19, align 8
  %246 = load ptr, ptr %7, align 8
  %247 = load ptr, ptr %8, align 8
  %248 = call i32 @dissector_try_uint(ptr noundef %242, i32 noundef %244, ptr noundef %245, ptr noundef %246, ptr noundef %247)
  %249 = icmp ne i32 %248, 0
  br i1 %249, label %255, label %250

250:                                              ; preds = %233
  %251 = load ptr, ptr %19, align 8
  %252 = load ptr, ptr %7, align 8
  %253 = load ptr, ptr %8, align 8
  %254 = call i32 @call_data_dissector(ptr noundef %251, ptr noundef %252, ptr noundef %253)
  br label %255

255:                                              ; preds = %250, %233
  %256 = load ptr, ptr %6, align 8
  %257 = call i32 @tvb_reported_length(ptr noundef %256)
  store i32 %257, ptr %5, align 4
  store i32 1, ptr %20, align 4
  br label %258

258:                                              ; preds = %255, %216, %51
  call void @llvm.lifetime.end.p0(i64 8, ptr %19) #4
  call void @llvm.lifetime.end.p0(i64 4, ptr %18) #4
  call void @llvm.lifetime.end.p0(i64 4, ptr %17) #4
  call void @llvm.lifetime.end.p0(i64 2, ptr %16) #4
  call void @llvm.lifetime.end.p0(i64 2, ptr %15) #4
  call void @llvm.lifetime.end.p0(i64 1, ptr %14) #4
  call void @llvm.lifetime.end.p0(i64 1, ptr %13) #4
  call void @llvm.lifetime.end.p0(i64 4, ptr %12) #4
  call void @llvm.lifetime.end.p0(i64 8, ptr %11) #4
  call void @llvm.lifetime.end.p0(i64 8, ptr %10) #4
  %259 = load i32, ptr %5, align 4
  ret i32 %259
}