; Function Attrs: null_pointer_is_valid sspstrong uwtable
define internal fastcc i32 @dissect_ipv6_bvlc(ptr noundef %0, ptr noundef %1, ptr noundef %2) unnamed_addr #0 {
  %4 = tail call zeroext i8 @tvb_get_uint8(ptr noundef %0, i32 noundef 0)
  %5 = tail call zeroext i8 @tvb_get_uint8(ptr noundef %0, i32 noundef 1)
  %6 = tail call zeroext i16 @tvb_get_ntohs(ptr noundef %0, i32 noundef 2)
  %7 = tail call i32 @tvb_reported_length_remaining(ptr noundef %0, i32 noundef 0)
  %8 = zext i8 %5 to i32
  %9 = icmp ult i8 %5, 13
  br i1 %9, label %switch.lookup, label %.thread

.thread:                                          ; preds = %3
  %10 = zext i16 %6 to i32
  br label %14

switch.lookup:                                    ; preds = %3
  %11 = zext nneg i8 %5 to i64
  %switch.gep = getelementptr inbounds nuw [13 x i32], ptr @switch.table.dissect_ipv6_bvlc, i64 0, i64 %11
  %switch.load = load i32, ptr %switch.gep, align 4
  %12 = zext i16 %6 to i32
  %13 = icmp samesign ugt i32 %switch.load, %12
  br i1 %13, label %79, label %14

14:                                               ; preds = %.thread, %switch.lookup
  %15 = phi i32 [ %10, %.thread ], [ %12, %switch.lookup ]
  %.01182 = phi i32 [ 0, %.thread ], [ %switch.load, %switch.lookup ]
  %16 = getelementptr inbounds nuw i8, ptr %1, i64 8
  %17 = load ptr, ptr %16, align 8
  %18 = tail call ptr @val_to_str_const(i32 noundef %8, ptr noundef nonnull @bvlc_ipv6_function_names, ptr noundef nonnull @.str.423)
  tail call void (ptr, i32, ptr, ...) @col_append_fstr(ptr noundef %17, i32 noundef 25, ptr noundef nonnull @.str.422, ptr noundef %18)
  %19 = load i32, ptr @proto_bvlc, align 4
  %20 = tail call ptr @proto_tree_add_item(ptr noundef %2, i32 noundef %19, ptr noundef %0, i32 noundef 0, i32 noundef %.01182, i32 noundef 0)
  %21 = load i32, ptr @ett_bvlc, align 4
  %22 = tail call ptr @proto_item_add_subtree(ptr noundef %20, i32 noundef %21)
  %23 = load i32, ptr @hf_bvlc_type, align 4
  %24 = zext i8 %4 to i32
  %25 = tail call ptr @proto_tree_add_uint(ptr noundef %22, i32 noundef %23, ptr noundef %0, i32 noundef 0, i32 noundef 1, i32 noundef %24)
  %26 = load i32, ptr @hf_bvlc_ipv6_function, align 4
  %27 = tail call ptr @proto_tree_add_uint(ptr noundef %22, i32 noundef %26, ptr noundef %0, i32 noundef 1, i32 noundef 1, i32 noundef %8)
  %.not = icmp eq i32 %7, %15
  %28 = load i32, ptr @hf_bvlc_length, align 4
  br i1 %.not, label %31, label %29

29:                                               ; preds = %14
  %30 = tail call ptr (ptr, i32, ptr, i32, i32, i32, ptr, ...) @proto_tree_add_uint_format_value(ptr noundef %22, i32 noundef %28, ptr noundef %0, i32 noundef 2, i32 noundef 2, i32 noundef %.01182, ptr noundef nonnull @.str.424, i32 noundef %.01182, i32 noundef %15, i32 noundef %7)
  br label %33

31:                                               ; preds = %14
  %32 = tail call ptr (ptr, i32, ptr, i32, i32, i32, ptr, ...) @proto_tree_add_uint_format_value(ptr noundef %22, i32 noundef %28, ptr noundef %0, i32 noundef 2, i32 noundef 2, i32 noundef %.01182, ptr noundef nonnull @.str.425, i32 noundef %.01182, i32 noundef %7)
  br label %33

33:                                               ; preds = %31, %29
  %.not123 = icmp eq i8 %5, 11
  br i1 %.not123, label %.thread3, label %34

34:                                               ; preds = %33
  %35 = load i32, ptr @hf_bvlc_virt_source, align 4
  %36 = tail call ptr @proto_tree_add_item(ptr noundef %22, i32 noundef %35, ptr noundef %0, i32 noundef 4, i32 noundef 3, i32 noundef 0)
  switch i8 %5, label %70 [
    i8 0, label %37
    i8 1, label %40
    i8 3, label %40
    i8 5, label %40
    i8 7, label %40
    i8 4, label %43
    i8 8, label %50
    i8 10, label %58
    i8 9, label %55
  ]

37:                                               ; preds = %34
  %38 = load i32, ptr @hf_bvlc_result_ip6, align 4
  %39 = tail call ptr @proto_tree_add_item(ptr noundef %22, i32 noundef %38, ptr noundef %0, i32 noundef 7, i32 noundef 2, i32 noundef 0)
  br label %70

40:                                               ; preds = %34, %34, %34, %34
  %41 = load i32, ptr @hf_bvlc_virt_dest, align 4
  %42 = tail call ptr @proto_tree_add_item(ptr noundef %22, i32 noundef %41, ptr noundef %0, i32 noundef 7, i32 noundef 3, i32 noundef 0)
  br label %70

43:                                               ; preds = %34
  %44 = load i32, ptr @hf_bvlc_virt_dest, align 4
  %45 = tail call ptr @proto_tree_add_item(ptr noundef %22, i32 noundef %44, ptr noundef %0, i32 noundef 7, i32 noundef 3, i32 noundef 0)
  %46 = load i32, ptr @hf_bvlc_orig_source_addr, align 4
  %47 = tail call ptr @proto_tree_add_item(ptr noundef %22, i32 noundef %46, ptr noundef %0, i32 noundef 10, i32 noundef 16, i32 noundef 0)
  %48 = load i32, ptr @hf_bvlc_orig_source_port, align 4
  %49 = tail call ptr @proto_tree_add_item(ptr noundef %22, i32 noundef %48, ptr noundef %0, i32 noundef 26, i32 noundef 2, i32 noundef 0)
  br label %70

50:                                               ; preds = %34
  %51 = load i32, ptr @hf_bvlc_orig_source_addr, align 4
  %52 = tail call ptr @proto_tree_add_item(ptr noundef %22, i32 noundef %51, ptr noundef %0, i32 noundef 7, i32 noundef 16, i32 noundef 0)
  %53 = load i32, ptr @hf_bvlc_orig_source_port, align 4
  %54 = tail call ptr @proto_tree_add_item(ptr noundef %22, i32 noundef %53, ptr noundef %0, i32 noundef 23, i32 noundef 2, i32 noundef 0)
  br label %70

55:                                               ; preds = %34
  %56 = load i32, ptr @hf_bvlc_reg_ttl, align 4
  %57 = tail call ptr @proto_tree_add_item(ptr noundef %22, i32 noundef %56, ptr noundef %0, i32 noundef 7, i32 noundef 2, i32 noundef 0)
  br label %70

58:                                               ; preds = %34
  %59 = load i32, ptr @hf_bvlc_fdt_ipv6, align 4
  %60 = tail call ptr @proto_tree_add_item(ptr noundef %22, i32 noundef %59, ptr noundef %0, i32 noundef 7, i32 noundef 16, i32 noundef 0)
  %61 = load i32, ptr @hf_bvlc_fdt_port, align 4
  %62 = tail call ptr @proto_tree_add_item(ptr noundef %22, i32 noundef %61, ptr noundef %0, i32 noundef 23, i32 noundef 2, i32 noundef 0)
  br label %70

.thread3:                                         ; preds = %33
  %63 = tail call i32 @bacnet_dissect_sec_wrapper(ptr noundef %0, ptr noundef %1, ptr noundef %2, i32 noundef 4, ptr noundef null)
  %64 = icmp slt i32 %63, 0
  br i1 %64, label %65, label %68

65:                                               ; preds = %.thread3
  %66 = tail call i32 @call_data_dissector(ptr noundef %0, ptr noundef %1, ptr noundef %2)
  %67 = tail call i32 @tvb_captured_length(ptr noundef %0)
  br label %79

68:                                               ; preds = %.thread3
  tail call void @increment_dissection_depth(ptr noundef %1)
  %69 = tail call fastcc i32 @dissect_ipv6_bvlc(ptr noundef %0, ptr noundef %1, ptr noundef %2)
  tail call void @decrement_dissection_depth(ptr noundef %1)
  br label %70

70:                                               ; preds = %34, %68, %58, %55, %50, %43, %40, %37
  %.1 = phi i32 [ 7, %34 ], [ 25, %58 ], [ 9, %55 ], [ %63, %68 ], [ 25, %50 ], [ 28, %43 ], [ 10, %40 ], [ 9, %37 ]
  %71 = sub nsw i32 %15, %.1
  %72 = tail call ptr @tvb_new_subset_length(ptr noundef %0, i32 noundef %.1, i32 noundef %71)
  %73 = load ptr, ptr @bvlc_ipv6_dissector_table, align 8
  %74 = tail call i32 @dissector_try_uint(ptr noundef %73, i32 noundef %8, ptr noundef %72, ptr noundef %1, ptr noundef %2)
  %.not124 = icmp eq i32 %74, 0
  br i1 %.not124, label %75, label %77

75:                                               ; preds = %70
  %76 = tail call i32 @call_data_dissector(ptr noundef %72, ptr noundef %1, ptr noundef %2)
  br label %77

77:                                               ; preds = %75, %70
  %78 = tail call i32 @tvb_reported_length(ptr noundef %0)
  br label %79

79:                                               ; preds = %switch.lookup, %77, %65
  %.0 = phi i32 [ %78, %77 ], [ %67, %65 ], [ 0, %switch.lookup ]
  ret i32 %.0
}